; Function Attrs: mustprogress nofree norecurse nounwind willreturn memory(readwrite, inaccessiblemem: none) uwtable
define noundef i32 @_ZN6icu_7513UnicodeString9removeRefEv(ptr nocapture noundef nonnull readonly align 8 dereferenceable(64) %this) local_unnamed_addr #6 align 2 {
entry:
  %fArray = getelementptr inbounds i8, ptr %this, i64 24
  %0 = load ptr, ptr %fArray, align 8
  %add.ptr = getelementptr inbounds i8, ptr %0, i64 -4
  %1 = atomicrmw sub ptr %add.ptr, i32 1 seq_cst, align 4
  %sub.i = add nsw i32 %1, -1
  ret i32 %sub.i
}